target datalayout = "e-m:e-p270:32:32-p271:32:32-p272:64:64-i64:64-i128:128-f80:128-n8:16:32:64-S128"
target triple = "x86_64-pc-linux-gnu"

%struct.Vmem = type { ptr, i64, i64 }
%union.SourceSpan = type { i64 }
%struct.Expr_ = type { ptr, %union.SourceSpan, i16, %union.anon.56 }
%union.anon.56 = type { %struct.ExprAnySwitch }
%struct.ExprAnySwitch = type { i8, %union.anon.58 }
%union.anon.58 = type { %struct.anon.59 }
%struct.anon.59 = type { ptr, %union.SourceSpan, ptr }
%struct.ExprAsmArg = type { i64, %union.anon.21 }
%union.anon.21 = type { %struct.anon.22 }
%struct.anon.22 = type { %union.anon.23, i8 }
%union.anon.23 = type { ptr }
%struct.AsmRegister = type { ptr, i32, i32, i32 }
%struct.anon.24 = type { i32, i32, i64 }

@.str = private unnamed_addr constant [36 x i8] c"FATAL ERROR %s -> in %s @ in %s:%d \00", align 1
@.str.1 = private unnamed_addr constant [22 x i8] c"Should be unreachable\00", align 1
@.str.2 = private unnamed_addr constant [112 x i8] c"generated/home/dtcxzyw/WorkSpace/Projects/compilers/llvm-opt-benchmark/bench/c3c/c3c/src/compiler/codegen_asm.c\00", align 1
@.str.4 = private unnamed_addr constant [3 x i8] c"$$\00", align 1
@__func__.codegen_create_x86att_arg = private unnamed_addr constant [26 x i8] c"codegen_create_x86att_arg\00", align 1
@.str.5 = private unnamed_addr constant [13 x i8] c"TODO reached\00", align 1
@expr_arena = external global %struct.Vmem, align 8

; Function Attrs: nounwind uwtable
define internal ptr @exprptr(i32 noundef %0) #0 {
  %2 = alloca i32, align 4
  store i32 %0, ptr %2, align 4
  %3 = load ptr, ptr @expr_arena, align 8
  %4 = load i32, ptr %2, align 4
  %5 = zext i32 %4 to i64
  %6 = getelementptr inbounds %struct.Expr_, ptr %3, i64 %5
  ret ptr %6
}

; Function Attrs: nounwind uwtable
define internal void @codegen_create_x86att_arg(ptr noundef %0, i32 noundef %1, ptr noundef %2) #0 {
  %4 = alloca ptr, align 8
  %5 = alloca i32, align 4
  %6 = alloca ptr, align 8
  %7 = alloca ptr, align 8
  %8 = alloca ptr, align 8
  store ptr %0, ptr %4, align 8
  store i32 %1, ptr %5, align 4
  store ptr %2, ptr %6, align 8
  %9 = load ptr, ptr %6, align 8
  %10 = getelementptr inbounds %struct.Expr_, ptr %9, i32 0, i32 3
  store ptr %10, ptr %7, align 8
  %11 = load ptr, ptr %7, align 8
  %12 = load i64, ptr %11, align 8
  %13 = and i64 %12, 255
  %14 = trunc i64 %13 to i32
  switch i32 %14, label %133 [
    i32 6, label %15
    i32 0, label %19
    i32 5, label %27
    i32 4, label %37
    i32 2, label %37
    i32 1, label %70
    i32 3, label %130
  ]

15:                                               ; preds = %3
  call void @scratch_buffer_append(ptr noundef @.str.4)
  %16 = load ptr, ptr %7, align 8
  %17 = getelementptr inbounds %struct.ExprAsmArg, ptr %16, i32 0, i32 1
  %18 = load i64, ptr %17, align 8
  call void @scratch_buffer_append_unsigned_int(i64 noundef %18)
  br label %135

19:                                               ; preds = %3
  %20 = load ptr, ptr %7, align 8
  %21 = getelementptr inbounds %struct.ExprAsmArg, ptr %20, i32 0, i32 1
  %22 = load ptr, ptr %21, align 8
  store ptr %22, ptr %8, align 8
  call void @scratch_buffer_append_char(i8 noundef signext 37)
  %23 = load ptr, ptr %8, align 8
  %24 = getelementptr inbounds %struct.AsmRegister, ptr %23, i32 0, i32 0
  %25 = load ptr, ptr %24, align 8
  %26 = getelementptr inbounds i8, ptr %25, i64 1
  call void @scratch_buffer_append(ptr noundef %26)
  br label %135

27:                                               ; preds = %3
  call void @scratch_buffer_append_char(i8 noundef signext 36)
  %28 = load ptr, ptr %7, align 8
  %29 = load i64, ptr %28, align 8
  %30 = lshr i64 %29, 16
  %31 = and i64 %30, 65535
  %32 = trunc i64 %31 to i16
  %33 = zext i16 %32 to i32
  %34 = load i32, ptr %5, align 4
  %35 = add i32 %33, %34
  %36 = zext i32 %35 to i64
  call void @scratch_buffer_append_unsigned_int(i64 noundef %36)
  br label %135

37:                                               ; preds = %3, %3
  call void @scratch_buffer_append_char(i8 noundef signext 36)
  %38 = load ptr, ptr %7, align 8
  %39 = getelementptr inbounds %struct.ExprAsmArg, ptr %38, i32 0, i32 1
  %40 = getelementptr inbounds %struct.anon.22, ptr %39, i32 0, i32 1
  %41 = load i8, ptr %40, align 8
  %42 = lshr i8 %41, 2
  %43 = and i8 %42, 1
  %44 = trunc i8 %43 to i1
  br i1 %44, label %45, label %62

45:                                               ; preds = %37
  %46 = load ptr, ptr %7, align 8
  %47 = getelementptr inbounds %struct.ExprAsmArg, ptr %46, i32 0, i32 1
  %48 = getelementptr inbounds %struct.anon.22, ptr %47, i32 0, i32 1
  %49 = load i8, ptr %48, align 8
  %50 = and i8 %49, 1
  %51 = trunc i8 %50 to i1
  br i1 %51, label %62, label %52

52:                                               ; preds = %45
  %53 = load ptr, ptr %7, align 8
  %54 = load i64, ptr %53, align 8
  %55 = lshr i64 %54, 16
  %56 = and i64 %55, 65535
  %57 = trunc i64 %56 to i16
  %58 = zext i16 %57 to i32
  %59 = load i32, ptr %5, align 4
  %60 = add i32 %58, %59
  %61 = zext i32 %60 to i64
  call void @scratch_buffer_append_unsigned_int(i64 noundef %61)
  br label %69

62:                                               ; preds = %45, %37
  %63 = load ptr, ptr %7, align 8
  %64 = load i64, ptr %63, align 8
  %65 = lshr i64 %64, 16
  %66 = and i64 %65, 65535
  %67 = trunc i64 %66 to i16
  %68 = zext i16 %67 to i64
  call void @scratch_buffer_append_unsigned_int(i64 noundef %68)
  br label %69

69:                                               ; preds = %62, %52
  br label %135

70:                                               ; preds = %3
  %71 = load ptr, ptr %7, align 8
  %72 = getelementptr inbounds %struct.ExprAsmArg, ptr %71, i32 0, i32 1
  %73 = getelementptr inbounds %struct.anon.24, ptr %72, i32 0, i32 2
  %74 = load i64, ptr %73, align 8
  %75 = icmp ne i64 %74, 0
  br i1 %75, label %76, label %88

76:                                               ; preds = %70
  %77 = load ptr, ptr %7, align 8
  %78 = load i64, ptr %77, align 8
  %79 = lshr i64 %78, 38
  %80 = and i64 %79, 1
  %81 = trunc i64 %80 to i1
  br i1 %81, label %82, label %83

82:                                               ; preds = %76
  call void @scratch_buffer_append_char(i8 noundef signext 45)
  br label %83

83:                                               ; preds = %82, %76
  %84 = load ptr, ptr %7, align 8
  %85 = getelementptr inbounds %struct.ExprAsmArg, ptr %84, i32 0, i32 1
  %86 = getelementptr inbounds %struct.anon.24, ptr %85, i32 0, i32 2
  %87 = load i64, ptr %86, align 8
  call void @scratch_buffer_append_unsigned_int(i64 noundef %87)
  br label %88

88:                                               ; preds = %83, %70
  call void @scratch_buffer_append_char(i8 noundef signext 40)
  %89 = load ptr, ptr %7, align 8
  %90 = getelementptr inbounds %struct.ExprAsmArg, ptr %89, i32 0, i32 1
  %91 = getelementptr inbounds %struct.anon.24, ptr %90, i32 0, i32 0
  %92 = load i32, ptr %91, align 8
  %93 = icmp ne i32 %92, 0
  br i1 %93, label %94, label %102

94:                                               ; preds = %88
  %95 = load ptr, ptr %4, align 8
  %96 = load i32, ptr %5, align 4
  %97 = load ptr, ptr %7, align 8
  %98 = getelementptr inbounds %struct.ExprAsmArg, ptr %97, i32 0, i32 1
  %99 = getelementptr inbounds %struct.anon.24, ptr %98, i32 0, i32 0
  %100 = load i32, ptr %99, align 8
  %101 = call ptr @exprptr(i32 noundef %100)
  call void @codegen_create_x86att_arg(ptr noundef %95, i32 noundef %96, ptr noundef %101)
  br label %102

102:                                              ; preds = %94, %88
  %103 = load ptr, ptr %7, align 8
  %104 = getelementptr inbounds %struct.ExprAsmArg, ptr %103, i32 0, i32 1
  %105 = getelementptr inbounds %struct.anon.24, ptr %104, i32 0, i32 1
  %106 = load i32, ptr %105, align 4
  %107 = icmp ne i32 %106, 0
  br i1 %107, label %108, label %129

108:                                              ; preds = %102
  call void @scratch_buffer_append_char(i8 noundef signext 44)
  %109 = load ptr, ptr %4, align 8
  %110 = load i32, ptr %5, align 4
  %111 = load ptr, ptr %7, align 8
  %112 = getelementptr inbounds %struct.ExprAsmArg, ptr %111, i32 0, i32 1
  %113 = getelementptr inbounds %struct.anon.24, ptr %112, i32 0, i32 1
  %114 = load i32, ptr %113, align 4
  %115 = call ptr @exprptr(i32 noundef %114)
  call void @codegen_create_x86att_arg(ptr noundef %109, i32 noundef %110, ptr noundef %115)
  call void @scratch_buffer_append_char(i8 noundef signext 44)
  %116 = load ptr, ptr %7, align 8
  %117 = load i64, ptr %116, align 8
  %118 = lshr i64 %117, 32
  %119 = and i64 %118, 63
  %120 = trunc i64 %119 to i32
  switch i32 %120, label %125 [
    i32 0, label %121
    i32 1, label %122
    i32 2, label %123
    i32 3, label %124
  ]

121:                                              ; preds = %108
  call void @scratch_buffer_append_char(i8 noundef signext 49)
  br label %128

122:                                              ; preds = %108
  call void @scratch_buffer_append_char(i8 noundef signext 50)
  br label %128

123:                                              ; preds = %108
  call void @scratch_buffer_append_char(i8 noundef signext 52)
  br label %128

124:                                              ; preds = %108
  call void @scratch_buffer_append_char(i8 noundef signext 56)
  br label %128

125:                                              ; preds = %108
  br label %126

126:                                              ; preds = %125
  call void (ptr, ...) @error_exit(ptr noundef @.str, ptr noundef @.str.1, ptr noundef @__func__.codegen_create_x86att_arg, ptr noundef @.str.2, i32 noundef 69) #3
  unreachable

127:                                              ; No predecessors!
  br label %128

128:                                              ; preds = %127, %124, %123, %122, %121
  br label %129

129:                                              ; preds = %128, %102
  call void @scratch_buffer_append_char(i8 noundef signext 41)
  br label %135

130:                                              ; preds = %3
  br label %131

131:                                              ; preds = %130
  call void (ptr, ...) @error_exit(ptr noundef @.str, ptr noundef @.str.5, ptr noundef @__func__.codegen_create_x86att_arg, ptr noundef @.str.2, i32 noundef 75) #3
  unreachable

132:                                              ; No predecessors!
  br label %133

133:                                              ; preds = %132, %3
  br label %134

134:                                              ; preds = %133
  call void (ptr, ...) @error_exit(ptr noundef @.str, ptr noundef @.str.1, ptr noundef @__func__.codegen_create_x86att_arg, ptr noundef @.str.2, i32 noundef 77) #3
  unreachable

135:                                              ; preds = %129, %69, %27, %19, %15
  ret void
}