; Function Attrs: nounwind uwtable
define internal fastcc void @codegen_create_x86att_arg(i32 noundef %0, ptr nocapture noundef readonly %1) unnamed_addr #0 {
  %3 = getelementptr inbounds i8, ptr %1, i64 24
  %4 = load i64, ptr %3, align 8
  %5 = trunc i64 %4 to i8
  switch i8 %5, label %67 [
    i8 6, label %6
    i8 0, label %9
    i8 5, label %14
    i8 4, label %20
    i8 2, label %20
    i8 1, label %36
    i8 3, label %66
  ]

6:                                                ; preds = %2
  tail call void @scratch_buffer_append(ptr noundef nonnull @.str.4) #3
  %7 = getelementptr inbounds i8, ptr %1, i64 32
  %8 = load i64, ptr %7, align 8
  tail call void @scratch_buffer_append_unsigned_int(i64 noundef %8) #3
  br label %68

9:                                                ; preds = %2
  %10 = getelementptr inbounds i8, ptr %1, i64 32
  %11 = load ptr, ptr %10, align 8
  tail call void @scratch_buffer_append_char(i8 noundef signext 37) #3
  %12 = load ptr, ptr %11, align 8
  %13 = getelementptr inbounds i8, ptr %12, i64 1
  tail call void @scratch_buffer_append(ptr noundef nonnull %13) #3
  br label %68

14:                                               ; preds = %2
  tail call void @scratch_buffer_append_char(i8 noundef signext 36) #3
  %15 = load i64, ptr %3, align 8
  %16 = trunc i64 %15 to i32
  %17 = lshr i32 %16, 16
  %18 = add i32 %17, %0
  %19 = zext i32 %18 to i64
  tail call void @scratch_buffer_append_unsigned_int(i64 noundef %19) #3
  br label %68

20:                                               ; preds = %2, %2
  tail call void @scratch_buffer_append_char(i8 noundef signext 36) #3
  %21 = getelementptr inbounds i8, ptr %1, i64 40
  %22 = load i8, ptr %21, align 8
  %23 = and i8 %22, 4
  %.not26 = icmp eq i8 %23, 0
  br i1 %.not26, label %32, label %24

24:                                               ; preds = %20
  %25 = trunc i8 %22 to i1
  br i1 %25, label %32, label %26

26:                                               ; preds = %24
  %27 = load i64, ptr %3, align 8
  %28 = trunc i64 %27 to i32
  %29 = lshr i32 %28, 16
  %30 = add i32 %29, %0
  %31 = zext i32 %30 to i64
  tail call void @scratch_buffer_append_unsigned_int(i64 noundef %31) #3
  br label %68

32:                                               ; preds = %24, %20
  %33 = load i64, ptr %3, align 8
  %34 = lshr i64 %33, 16
  %35 = and i64 %34, 65535
  tail call void @scratch_buffer_append_unsigned_int(i64 noundef %35) #3
  br label %68

36:                                               ; preds = %2
  %37 = getelementptr inbounds i8, ptr %1, i64 32
  %38 = getelementptr inbounds i8, ptr %1, i64 40
  %39 = load i64, ptr %38, align 8
  %.not = icmp eq i64 %39, 0
  br i1 %.not, label %45, label %40

40:                                               ; preds = %36
  %41 = and i64 %4, 274877906944
  %.not23 = icmp eq i64 %41, 0
  br i1 %.not23, label %43, label %42

42:                                               ; preds = %40
  tail call void @scratch_buffer_append_char(i8 noundef signext 45) #3
  %.pre = load i64, ptr %38, align 8
  br label %43

43:                                               ; preds = %42, %40
  %44 = phi i64 [ %.pre, %42 ], [ %39, %40 ]
  tail call void @scratch_buffer_append_unsigned_int(i64 noundef %44) #3
  br label %45

45:                                               ; preds = %43, %36
  tail call void @scratch_buffer_append_char(i8 noundef signext 40) #3
  %46 = load i32, ptr %37, align 8
  %.not24 = icmp eq i32 %46, 0
  br i1 %.not24, label %51, label %47

47:                                               ; preds = %45
  %48 = load ptr, ptr @expr_arena, align 8
  %49 = zext i32 %46 to i64
  %50 = getelementptr inbounds %struct.Expr_, ptr %48, i64 %49
  tail call fastcc void @codegen_create_x86att_arg(i32 noundef %0, ptr noundef nonnull %50)
  br label %51

51:                                               ; preds = %47, %45
  %52 = getelementptr inbounds i8, ptr %1, i64 36
  %53 = load i32, ptr %52, align 4
  %.not25 = icmp eq i32 %53, 0
  br i1 %.not25, label %65, label %54

54:                                               ; preds = %51
  tail call void @scratch_buffer_append_char(i8 noundef signext 44) #3
  %55 = load i32, ptr %52, align 4
  %56 = load ptr, ptr @expr_arena, align 8
  %57 = zext i32 %55 to i64
  %58 = getelementptr inbounds %struct.Expr_, ptr %56, i64 %57
  tail call fastcc void @codegen_create_x86att_arg(i32 noundef %0, ptr noundef %58)
  tail call void @scratch_buffer_append_char(i8 noundef signext 44) #3
  %59 = load i64, ptr %3, align 8
  %60 = lshr i64 %59, 32
  %61 = trunc nuw i64 %60 to i32
  %62 = and i32 %61, 63
  %63 = icmp ult i32 %62, 4
  br i1 %63, label %switch.lookup, label %64

64:                                               ; preds = %54
  tail call void (ptr, ...) @error_exit(ptr noundef nonnull @.str, ptr noundef nonnull @.str.1, ptr noundef nonnull @__func__.codegen_create_x86att_arg, ptr noundef nonnull @.str.2, i32 noundef 69) #4
  unreachable

switch.lookup:                                    ; preds = %54
  %switch.shiftamt = shl nuw nsw i32 %62, 3
  %switch.downshift = lshr i32 942944817, %switch.shiftamt
  %switch.masked = trunc i32 %switch.downshift to i8
  tail call void @scratch_buffer_append_char(i8 noundef signext %switch.masked) #3
  br label %65

65:                                               ; preds = %switch.lookup, %51
  tail call void @scratch_buffer_append_char(i8 noundef signext 41) #3
  br label %68

66:                                               ; preds = %2
  tail call void (ptr, ...) @error_exit(ptr noundef nonnull @.str, ptr noundef nonnull @.str.5, ptr noundef nonnull @__func__.codegen_create_x86att_arg, ptr noundef nonnull @.str.2, i32 noundef 75) #4
  unreachable

67:                                               ; preds = %2
  tail call void (ptr, ...) @error_exit(ptr noundef nonnull @.str, ptr noundef nonnull @.str.1, ptr noundef nonnull @__func__.codegen_create_x86att_arg, ptr noundef nonnull @.str.2, i32 noundef 77) #4
  unreachable

68:                                               ; preds = %26, %32, %65, %14, %9, %6
  ret void
}